; ModuleID = '14/853.c'
source_filename = "14/853.c"
target datalayout = "e-m:e-p270:32:32-p271:32:32-p272:64:64-i64:64-f80:128-n8:16:32:64-S128"
target triple = "x86_64-pc-linux-gnu"

%struct.Student = type { i32, i32, i32, i32 }

@.str = private unnamed_addr constant [3 x i8] c"%d\00", align 1
@.str.1 = private unnamed_addr constant [7 x i8] c"%d%d%d\00", align 1
@.str.2 = private unnamed_addr constant [7 x i8] c"%d %d\0A\00", align 1

; Function Attrs: noinline nounwind uwtable
define dso_local i32 @main() #0 {
  %1 = alloca i32, align 4
  %2 = alloca [100000 x %struct.Student], align 16
  %3 = alloca i32, align 4
  %4 = alloca i32, align 4
  %5 = alloca i32, align 4
  %6 = alloca %struct.Student, align 4
  store i32 0, i32* %1, align 4
  %7 = call i32 (i8*, ...) @__isoc99_scanf(i8* getelementptr inbounds ([3 x i8], [3 x i8]* @.str, i64 0, i64 0), i32* %5)
  store i32 0, i32* %3, align 4
  br label %8

8:                                                ; preds = %26, %0
  %9 = load i32, i32* %3, align 4
  %10 = load i32, i32* %5, align 4
  %11 = icmp slt i32 %9, %10
  br i1 %11, label %12, label %29

12:                                               ; preds = %8
  %13 = load i32, i32* %3, align 4
  %14 = sext i32 %13 to i64
  %15 = getelementptr inbounds [100000 x %struct.Student], [100000 x %struct.Student]* %2, i64 0, i64 %14
  %16 = getelementptr inbounds %struct.Student, %struct.Student* %15, i32 0, i32 0
  %17 = load i32, i32* %3, align 4
  %18 = sext i32 %17 to i64
  %19 = getelementptr inbounds [100000 x %struct.Student], [100000 x %struct.Student]* %2, i64 0, i64 %18
  %20 = getelementptr inbounds %struct.Student, %struct.Student* %19, i32 0, i32 1
  %21 = load i32, i32* %3, align 4
  %22 = sext i32 %21 to i64
  %23 = getelementptr inbounds [100000 x %struct.Student], [100000 x %struct.Student]* %2, i64 0, i64 %22
  %24 = getelementptr inbounds %struct.Student, %struct.Student* %23, i32 0, i32 2
  %25 = call i32 (i8*, ...) @__isoc99_scanf(i8* getelementptr inbounds ([7 x i8], [7 x i8]* @.str.1, i64 0, i64 0), i32* %16, i32* %20, i32* %24)
  br label %26

26:                                               ; preds = %12
  %27 = load i32, i32* %3, align 4
  %28 = add nsw i32 %27, 1
  store i32 %28, i32* %3, align 4
  br label %8

29:                                               ; preds = %8
  store i32 0, i32* %3, align 4
  br label %30

30:                                               ; preds = %88, %29
  %31 = load i32, i32* %3, align 4
  %32 = icmp slt i32 %31, 3
  br i1 %32, label %33, label %91

33:                                               ; preds = %30
  %34 = load i32, i32* %3, align 4
  %35 = add nsw i32 %34, 1
  store i32 %35, i32* %4, align 4
  br label %36

36:                                               ; preds = %84, %33
  %37 = load i32, i32* %4, align 4
  %38 = load i32, i32* %5, align 4
  %39 = icmp slt i32 %37, %38
  br i1 %39, label %40, label %87

40:                                               ; preds = %36
  %41 = load i32, i32* %3, align 4
  %42 = sext i32 %41 to i64
  %43 = getelementptr inbounds [100000 x %struct.Student], [100000 x %struct.Student]* %2, i64 0, i64 %42
  %44 = getelementptr inbounds %struct.Student, %struct.Student* %43, i32 0, i32 1
  %45 = load i32, i32* %44, align 4
  %46 = load i32, i32* %3, align 4
  %47 = sext i32 %46 to i64
  %48 = getelementptr inbounds [100000 x %struct.Student], [100000 x %struct.Student]* %2, i64 0, i64 %47
  %49 = getelementptr inbounds %struct.Student, %struct.Student* %48, i32 0, i32 2
  %50 = load i32, i32* %49, align 8
  %51 = add nsw i32 %45, %50
  %52 = load i32, i32* %4, align 4
  %53 = sext i32 %52 to i64
  %54 = getelementptr inbounds [100000 x %struct.Student], [100000 x %struct.Student]* %2, i64 0, i64 %53
  %55 = getelementptr inbounds %struct.Student, %struct.Student* %54, i32 0, i32 1
  %56 = load i32, i32* %55, align 4
  %57 = load i32, i32* %4, align 4
  %58 = sext i32 %57 to i64
  %59 = getelementptr inbounds [100000 x %struct.Student], [100000 x %struct.Student]* %2, i64 0, i64 %58
  %60 = getelementptr inbounds %struct.Student, %struct.Student* %59, i32 0, i32 2
  %61 = load i32, i32* %60, align 8
  %62 = add nsw i32 %56, %61
  %63 = icmp slt i32 %51, %62
  br i1 %63, label %64, label %83

64:                                               ; preds = %40
  %65 = load i32, i32* %3, align 4
  %66 = sext i32 %65 to i64
  %67 = getelementptr inbounds [100000 x %struct.Student], [100000 x %struct.Student]* %2, i64 0, i64 %66
  %68 = bitcast %struct.Student* %6 to i8*
  %69 = bitcast %struct.Student* %67 to i8*
  call void @llvm.memcpy.p0i8.p0i8.i64(i8* align 4 %68, i8* align 16 %69, i64 16, i1 false)
  %70 = load i32, i32* %3, align 4
  %71 = sext i32 %70 to i64
  %72 = getelementptr inbounds [100000 x %struct.Student], [100000 x %struct.Student]* %2, i64 0, i64 %71
  %73 = load i32, i32* %4, align 4
  %74 = sext i32 %73 to i64
  %75 = getelementptr inbounds [100000 x %struct.Student], [100000 x %struct.Student]* %2, i64 0, i64 %74
  %76 = bitcast %struct.Student* %72 to i8*
  %77 = bitcast %struct.Student* %75 to i8*
  call void @llvm.memcpy.p0i8.p0i8.i64(i8* align 16 %76, i8* align 16 %77, i64 16, i1 false)
  %78 = load i32, i32* %4, align 4
  %79 = sext i32 %78 to i64
  %80 = getelementptr inbounds [100000 x %struct.Student], [100000 x %struct.Student]* %2, i64 0, i64 %79
  %81 = bitcast %struct.Student* %80 to i8*
  %82 = bitcast %struct.Student* %6 to i8*
  call void @llvm.memcpy.p0i8.p0i8.i64(i8* align 16 %81, i8* align 4 %82, i64 16, i1 false)
  br label %83

83:                                               ; preds = %64, %40
  br label %84

84:                                               ; preds = %83
  %85 = load i32, i32* %4, align 4
  %86 = add nsw i32 %85, 1
  store i32 %86, i32* %4, align 4
  br label %36

87:                                               ; preds = %36
  br label %88

88:                                               ; preds = %87
  %89 = load i32, i32* %3, align 4
  %90 = add nsw i32 %89, 1
  store i32 %90, i32* %3, align 4
  br label %30

91:                                               ; preds = %30
  store i32 0, i32* %3, align 4
  br label %92

92:                                               ; preds = %113, %91
  %93 = load i32, i32* %3, align 4
  %94 = icmp slt i32 %93, 3
  br i1 %94, label %95, label %116

95:                                               ; preds = %92
  %96 = load i32, i32* %3, align 4
  %97 = sext i32 %96 to i64
  %98 = getelementptr inbounds [100000 x %struct.Student], [100000 x %struct.Student]* %2, i64 0, i64 %97
  %99 = getelementptr inbounds %struct.Student, %struct.Student* %98, i32 0, i32 0
  %100 = load i32, i32* %99, align 16
  %101 = load i32, i32* %3, align 4
  %102 = sext i32 %101 to i64
  %103 = getelementptr inbounds [100000 x %struct.Student], [100000 x %struct.Student]* %2, i64 0, i64 %102
  %104 = getelementptr inbounds %struct.Student, %struct.Student* %103, i32 0, i32 1
  %105 = load i32, i32* %104, align 4
  %106 = load i32, i32* %3, align 4
  %107 = sext i32 %106 to i64
  %108 = getelementptr inbounds [100000 x %struct.Student], [100000 x %struct.Student]* %2, i64 0, i64 %107
  %109 = getelementptr inbounds %struct.Student, %struct.Student* %108, i32 0, i32 2
  %110 = load i32, i32* %109, align 8
  %111 = add nsw i32 %105, %110
  %112 = call i32 (i8*, ...) @printf(i8* getelementptr inbounds ([7 x i8], [7 x i8]* @.str.2, i64 0, i64 0), i32 %100, i32 %111)
  br label %113

113:                                              ; preds = %95
  %114 = load i32, i32* %3, align 4
  %115 = add nsw i32 %114, 1
  store i32 %115, i32* %3, align 4
  br label %92

116:                                              ; preds = %92
  ret i32 0
}

declare dso_local i32 @__isoc99_scanf(i8*, ...) #1

; Function Attrs: argmemonly nounwind willreturn
declare void @llvm.memcpy.p0i8.p0i8.i64(i8* noalias nocapture writeonly, i8* noalias nocapture readonly, i64, i1 immarg) #2

declare dso_local i32 @printf(i8*, ...) #1


!llvm.module.flags = !{!0}
!llvm.ident = !{!1}

!0 = !{i32 1, !"wchar_size", i32 4}
!1 = !{!"clang version 10.0.0-4ubuntu1 "}
